target datalayout = "e-m:e-p270:32:32-p271:32:32-p272:64:64-i64:64-i128:128-f80:128-n8:16:32:64-S128"
target triple = "x86_64-pc-linux-gnu"

%struct._zend_array = type { %struct._zend_refcounted_h, %union.anon.0, i32, %union.anon.1, i32, i32, i32, i32, i64, ptr }
%struct._zend_refcounted_h = type { i32, %union.anon }
%union.anon = type { i32 }
%union.anon.0 = type { i32 }
%union.anon.1 = type { ptr }
%struct._zval_struct = type { %union._zend_value, %union.anon.3, %union.anon.6 }
%union._zend_value = type { i64 }
%union.anon.3 = type { i32 }
%union.anon.6 = type { i32 }
%struct._zend_op_array = type { i8, [3 x i8], i32, ptr, ptr, ptr, i32, i32, ptr, ptr, ptr, ptr, i32, i32, i32, i32, ptr, ptr, ptr, ptr, ptr, i32, i32, ptr, ptr, ptr, i32, i32, i32, i32, ptr, ptr, [6 x ptr] }
%struct._zend_string = type { %struct._zend_refcounted_h, i64, i64, [1 x i8] }
%struct._zend_script = type { ptr, %struct._zend_op_array, %struct._zend_array, %struct._zend_array }
%struct._Bucket = type { %struct._zval_struct, i64, ptr }
%struct._zend_class_entry = type { i8, ptr, %union.anon.8, i32, i32, i32, i32, ptr, ptr, ptr, %struct._zend_array, %struct._zend_array, %struct._zend_array, ptr, ptr, ptr, ptr, ptr, ptr, ptr, ptr, ptr, ptr, ptr, ptr, ptr, ptr, ptr, ptr, ptr, ptr, ptr, %union.anon.9, ptr, ptr, ptr, ptr, i32, i32, %union.anon.10, ptr, ptr, ptr, ptr, i32, ptr, ptr, %union.anon.11 }
%union.anon.8 = type { ptr }
%union.anon.9 = type { ptr }
%union.anon.10 = type { ptr }
%union.anon.11 = type { %struct.anon.12 }
%struct.anon.12 = type { ptr, i32, i32 }

; Function Attrs: nounwind uwtable
define hidden void @zend_accel_move_user_classes(ptr noundef %0, i32 noundef %1, ptr noundef %2) #0 {
  %4 = alloca ptr, align 8
  %5 = alloca ptr, align 8
  %6 = alloca i32, align 4
  %7 = alloca i32, align 4
  %8 = alloca ptr, align 8
  %9 = alloca i32, align 4
  %10 = alloca ptr, align 8
  %11 = alloca ptr, align 8
  %12 = alloca ptr, align 8
  %13 = alloca i8, align 1
  %14 = alloca i32, align 4
  %15 = alloca i32, align 4
  %16 = alloca ptr, align 8
  %17 = alloca ptr, align 8
  %18 = alloca ptr, align 8
  %19 = alloca ptr, align 8
  %20 = alloca ptr, align 8
  %21 = alloca ptr, align 8
  %22 = alloca i32, align 4
  %23 = alloca ptr, align 8
  %24 = alloca ptr, align 8
  %25 = alloca ptr, align 8
  %26 = alloca ptr, align 8
  %27 = alloca ptr, align 8
  %28 = alloca ptr, align 8
  %29 = alloca ptr, align 8
  store ptr %0, ptr %21, align 8
  store i32 %1, ptr %22, align 4
  store ptr %2, ptr %23, align 8
  %30 = load i32, ptr %22, align 4
  %31 = icmp ne i32 %30, 0
  br i1 %31, label %33, label %32

32:                                               ; preds = %3
  br label %215

33:                                               ; preds = %3
  %34 = load ptr, ptr %23, align 8
  %35 = getelementptr inbounds %struct._zend_script, ptr %34, i32 0, i32 3
  store ptr %35, ptr %26, align 8
  %36 = load ptr, ptr %23, align 8
  %37 = getelementptr inbounds %struct._zend_script, ptr %36, i32 0, i32 1
  %38 = getelementptr inbounds %struct._zend_op_array, ptr %37, i32 0, i32 25
  %39 = load ptr, ptr %38, align 8
  store ptr %39, ptr %27, align 8
  %40 = load ptr, ptr %21, align 8
  %41 = getelementptr inbounds %struct._zend_array, ptr %40, i32 0, i32 9
  %42 = load ptr, ptr %41, align 8
  store ptr %42, ptr %28, align 8
  %43 = load ptr, ptr %21, align 8
  %44 = getelementptr inbounds %struct._zend_array, ptr %43, i32 0, i32 9
  store ptr null, ptr %44, align 8
  %45 = load ptr, ptr %26, align 8
  %46 = load i32, ptr %22, align 4
  call void @zend_hash_extend(ptr noundef %45, i32 noundef %46, i1 noundef zeroext false)
  %47 = load ptr, ptr %21, align 8
  %48 = getelementptr inbounds %struct._zend_array, ptr %47, i32 0, i32 3
  %49 = load ptr, ptr %48, align 8
  %50 = load ptr, ptr %21, align 8
  %51 = getelementptr inbounds %struct._zend_array, ptr %50, i32 0, i32 4
  %52 = load i32, ptr %51, align 8
  %53 = zext i32 %52 to i64
  %54 = getelementptr inbounds %struct._Bucket, ptr %49, i64 %53
  store ptr %54, ptr %25, align 8
  %55 = load ptr, ptr %25, align 8
  %56 = load i32, ptr %22, align 4
  %57 = zext i32 %56 to i64
  %58 = sub i64 0, %57
  %59 = getelementptr inbounds %struct._Bucket, ptr %55, i64 %58
  store ptr %59, ptr %24, align 8
  br label %60

60:                                               ; preds = %208, %33
  %61 = load ptr, ptr %24, align 8
  %62 = load ptr, ptr %25, align 8
  %63 = icmp ne ptr %61, %62
  br i1 %63, label %64, label %211

64:                                               ; preds = %60
  %65 = load ptr, ptr %24, align 8
  %66 = getelementptr inbounds %struct._Bucket, ptr %65, i32 0, i32 0
  store ptr %66, ptr %20, align 8
  %67 = load ptr, ptr %20, align 8
  %68 = getelementptr inbounds %struct._zval_struct, ptr %67, i32 0, i32 1
  %69 = load i8, ptr %68, align 8
  %70 = zext i8 %69 to i32
  %71 = icmp eq i32 %70, 0
  %72 = xor i1 %71, true
  %73 = xor i1 %72, true
  %74 = zext i1 %73 to i32
  %75 = sext i32 %74 to i64
  %76 = icmp ne i64 %75, 0
  br i1 %76, label %77, label %78

77:                                               ; preds = %64
  br label %208

78:                                               ; preds = %64
  %79 = load ptr, ptr %24, align 8
  %80 = getelementptr inbounds %struct._Bucket, ptr %79, i32 0, i32 0
  %81 = getelementptr inbounds %struct._zval_struct, ptr %80, i32 0, i32 0
  %82 = load ptr, ptr %81, align 8
  store ptr %82, ptr %29, align 8
  %83 = load ptr, ptr %29, align 8
  %84 = getelementptr inbounds %struct._zend_class_entry, ptr %83, i32 0, i32 0
  %85 = load i8, ptr %84, align 8
  %86 = sext i8 %85 to i32
  %87 = icmp eq i32 %86, 2
  %88 = xor i1 %87, true
  %89 = xor i1 %88, true
  %90 = zext i1 %89 to i32
  %91 = sext i32 %90 to i64
  %92 = icmp ne i64 %91, 0
  br i1 %92, label %93, label %207

93:                                               ; preds = %78
  %94 = load ptr, ptr %29, align 8
  %95 = getelementptr inbounds %struct._zend_class_entry, ptr %94, i32 0, i32 47
  %96 = getelementptr inbounds %struct.anon.12, ptr %95, i32 0, i32 0
  %97 = load ptr, ptr %96, align 8
  %98 = load ptr, ptr %27, align 8
  %99 = icmp eq ptr %97, %98
  %100 = xor i1 %99, true
  %101 = xor i1 %100, true
  %102 = zext i1 %101 to i32
  %103 = sext i32 %102 to i64
  %104 = icmp ne i64 %103, 0
  br i1 %104, label %105, label %207

105:                                              ; preds = %93
  %106 = load ptr, ptr %26, align 8
  %107 = load ptr, ptr %24, align 8
  %108 = getelementptr inbounds %struct._Bucket, ptr %107, i32 0, i32 2
  %109 = load ptr, ptr %108, align 8
  %110 = load ptr, ptr %29, align 8
  store ptr %106, ptr %17, align 8
  store ptr %109, ptr %18, align 8
  store ptr %110, ptr %19, align 8
  %111 = load ptr, ptr %17, align 8
  %112 = load ptr, ptr %18, align 8
  %113 = load ptr, ptr %19, align 8
  store ptr %111, ptr %10, align 8
  store ptr %112, ptr %11, align 8
  store ptr %113, ptr %12, align 8
  store i8 0, ptr %13, align 1
  %114 = load ptr, ptr %10, align 8
  %115 = getelementptr inbounds %struct._zend_array, ptr %114, i32 0, i32 4
  %116 = load i32, ptr %115, align 8
  %117 = add i32 %116, 1
  store i32 %117, ptr %115, align 8
  store i32 %116, ptr %14, align 4
  %118 = load ptr, ptr %10, align 8
  %119 = getelementptr inbounds %struct._zend_array, ptr %118, i32 0, i32 3
  %120 = load ptr, ptr %119, align 8
  %121 = load i32, ptr %14, align 4
  %122 = zext i32 %121 to i64
  %123 = getelementptr inbounds %struct._Bucket, ptr %120, i64 %122
  store ptr %123, ptr %16, align 8
  %124 = load ptr, ptr %12, align 8
  %125 = load ptr, ptr %16, align 8
  store ptr %124, ptr %125, align 8
  %126 = load ptr, ptr %16, align 8
  %127 = getelementptr inbounds %struct._zval_struct, ptr %126, i32 0, i32 1
  store i32 13, ptr %127, align 8
  %128 = load i8, ptr %13, align 1
  %129 = trunc i8 %128 to i1
  br i1 %129, label %168, label %130

130:                                              ; preds = %105
  %131 = load ptr, ptr %11, align 8
  %132 = getelementptr inbounds %struct._zend_refcounted_h, ptr %131, i32 0, i32 1
  %133 = load i32, ptr %132, align 4
  store i32 %133, ptr %9, align 4
  %134 = load i32, ptr %9, align 4
  %135 = and i32 %134, 1008
  %136 = and i32 %135, 64
  %137 = icmp ne i32 %136, 0
  br i1 %137, label %168, label %138

138:                                              ; preds = %130
  %139 = load ptr, ptr %10, align 8
  %140 = getelementptr inbounds %struct._zend_array, ptr %139, i32 0, i32 1
  %141 = load i32, ptr %140, align 8
  %142 = and i32 %141, -17
  store i32 %142, ptr %140, align 8
  %143 = load ptr, ptr %11, align 8
  store ptr %143, ptr %8, align 8
  %144 = load ptr, ptr %8, align 8
  %145 = getelementptr inbounds %struct._zend_refcounted_h, ptr %144, i32 0, i32 1
  %146 = load i32, ptr %145, align 4
  store i32 %146, ptr %6, align 4
  %147 = load i32, ptr %6, align 4
  %148 = and i32 %147, 1008
  %149 = and i32 %148, 64
  %150 = icmp ne i32 %149, 0
  br i1 %150, label %156, label %151

151:                                              ; preds = %138
  %152 = load ptr, ptr %8, align 8
  store ptr %152, ptr %4, align 8
  %153 = load ptr, ptr %4, align 8
  %154 = load i32, ptr %153, align 4
  %155 = add i32 %154, 1
  store i32 %155, ptr %153, align 4
  store i32 %155, ptr %7, align 4
  br label %157

156:                                              ; preds = %138
  store i32 1, ptr %7, align 4
  br label %157

157:                                              ; preds = %156, %151
  %158 = load ptr, ptr %11, align 8
  store ptr %158, ptr %5, align 8
  %159 = load ptr, ptr %5, align 8
  %160 = getelementptr inbounds %struct._zend_string, ptr %159, i32 0, i32 1
  %161 = load i64, ptr %160, align 8
  %162 = icmp ne i64 %161, 0
  br i1 %162, label %163, label %164

163:                                              ; preds = %157
  br label %167

164:                                              ; preds = %157
  %165 = load ptr, ptr %5, align 8
  %166 = call i64 @zend_string_hash_func(ptr noundef %165) #11
  br label %167

167:                                              ; preds = %164, %163
  br label %168

168:                                              ; preds = %167, %130, %105
  %169 = load ptr, ptr %11, align 8
  %170 = load ptr, ptr %16, align 8
  %171 = getelementptr inbounds %struct._Bucket, ptr %170, i32 0, i32 2
  store ptr %169, ptr %171, align 8
  %172 = load ptr, ptr %11, align 8
  %173 = getelementptr inbounds %struct._zend_string, ptr %172, i32 0, i32 1
  %174 = load i64, ptr %173, align 8
  %175 = load ptr, ptr %16, align 8
  %176 = getelementptr inbounds %struct._Bucket, ptr %175, i32 0, i32 1
  store i64 %174, ptr %176, align 8
  %177 = load ptr, ptr %16, align 8
  %178 = getelementptr inbounds %struct._Bucket, ptr %177, i32 0, i32 1
  %179 = load i64, ptr %178, align 8
  %180 = trunc i64 %179 to i32
  %181 = load ptr, ptr %10, align 8
  %182 = getelementptr inbounds %struct._zend_array, ptr %181, i32 0, i32 2
  %183 = load i32, ptr %182, align 4
  %184 = or i32 %180, %183
  store i32 %184, ptr %15, align 4
  %185 = load ptr, ptr %10, align 8
  %186 = getelementptr inbounds %struct._zend_array, ptr %185, i32 0, i32 3
  %187 = load ptr, ptr %186, align 8
  %188 = load i32, ptr %15, align 4
  %189 = sext i32 %188 to i64
  %190 = getelementptr inbounds i32, ptr %187, i64 %189
  %191 = load i32, ptr %190, align 4
  %192 = load ptr, ptr %16, align 8
  %193 = getelementptr inbounds %struct._zval_struct, ptr %192, i32 0, i32 2
  store i32 %191, ptr %193, align 4
  %194 = load i32, ptr %14, align 4
  %195 = load ptr, ptr %10, align 8
  %196 = getelementptr inbounds %struct._zend_array, ptr %195, i32 0, i32 3
  %197 = load ptr, ptr %196, align 8
  %198 = load i32, ptr %15, align 4
  %199 = sext i32 %198 to i64
  %200 = getelementptr inbounds i32, ptr %197, i64 %199
  store i32 %194, ptr %200, align 4
  %201 = load ptr, ptr %10, align 8
  %202 = getelementptr inbounds %struct._zend_array, ptr %201, i32 0, i32 5
  %203 = load i32, ptr %202, align 4
  %204 = add i32 %203, 1
  store i32 %204, ptr %202, align 4
  %205 = load ptr, ptr %21, align 8
  %206 = load ptr, ptr %24, align 8
  call void @zend_hash_del_bucket(ptr noundef %205, ptr noundef %206)
  br label %207

207:                                              ; preds = %168, %93, %78
  br label %208

208:                                              ; preds = %207, %77
  %209 = load ptr, ptr %24, align 8
  %210 = getelementptr inbounds %struct._Bucket, ptr %209, i32 1
  store ptr %210, ptr %24, align 8
  br label %60

211:                                              ; preds = %60
  %212 = load ptr, ptr %28, align 8
  %213 = load ptr, ptr %21, align 8
  %214 = getelementptr inbounds %struct._zend_array, ptr %213, i32 0, i32 9
  store ptr %212, ptr %214, align 8
  br label %215

215:                                              ; preds = %211, %32
  ret void
}