; Function Attrs: nounwind uwtable
define hidden void @zend_accel_move_user_classes(ptr noundef %0, i32 noundef %1, ptr noundef %2) local_unnamed_addr #0 {
  %.not = icmp eq i32 %1, 0
  br i1 %.not, label %79, label %.lr.ph

.lr.ph:                                           ; preds = %3
  %4 = getelementptr inbounds i8, ptr %2, i64 304
  %5 = getelementptr inbounds i8, ptr %2, i64 160
  %6 = load ptr, ptr %5, align 8
  %7 = getelementptr inbounds i8, ptr %0, i64 48
  %8 = load ptr, ptr %7, align 8
  store ptr null, ptr %7, align 8
  tail call void @zend_hash_extend(ptr noundef nonnull %4, i32 noundef %1, i1 noundef zeroext false) #10
  %9 = getelementptr inbounds i8, ptr %0, i64 16
  %10 = load ptr, ptr %9, align 8
  %11 = getelementptr inbounds i8, ptr %0, i64 24
  %12 = load i32, ptr %11, align 8
  %13 = zext i32 %12 to i64
  %14 = getelementptr inbounds %struct._Bucket, ptr %10, i64 %13
  %15 = zext i32 %1 to i64
  %16 = sub nsw i64 0, %15
  %17 = getelementptr inbounds %struct._Bucket, ptr %14, i64 %16
  %18 = getelementptr inbounds i8, ptr %2, i64 328
  %19 = getelementptr inbounds i8, ptr %2, i64 320
  %20 = getelementptr inbounds i8, ptr %2, i64 312
  %21 = getelementptr inbounds i8, ptr %2, i64 316
  %22 = getelementptr inbounds i8, ptr %2, i64 332
  br label %23

23:                                               ; preds = %.lr.ph, %77
  %.066 = phi ptr [ %17, %.lr.ph ], [ %78, %77 ]
  %24 = getelementptr inbounds i8, ptr %.066, i64 8
  %25 = load i8, ptr %24, align 8
  %26 = icmp eq i8 %25, 0
  br i1 %26, label %77, label %27

27:                                               ; preds = %23
  %28 = load ptr, ptr %.066, align 8
  %29 = load i8, ptr %28, align 8
  %30 = icmp eq i8 %29, 2
  br i1 %30, label %31, label %77

31:                                               ; preds = %27
  %32 = getelementptr inbounds i8, ptr %28, i64 496
  %33 = load ptr, ptr %32, align 8
  %34 = icmp eq ptr %33, %6
  br i1 %34, label %35, label %77

35:                                               ; preds = %31
  %36 = getelementptr inbounds i8, ptr %.066, i64 24
  %37 = load ptr, ptr %36, align 8
  %38 = load i32, ptr %18, align 8
  %39 = add i32 %38, 1
  store i32 %39, ptr %18, align 8
  %40 = load ptr, ptr %19, align 8
  %41 = zext i32 %38 to i64
  %42 = getelementptr inbounds %struct._Bucket, ptr %40, i64 %41
  store ptr %28, ptr %42, align 8
  %43 = getelementptr inbounds i8, ptr %42, i64 8
  store i32 13, ptr %43, align 8
  %44 = getelementptr inbounds i8, ptr %37, i64 4
  %45 = load i32, ptr %44, align 4
  %46 = and i32 %45, 64
  %.not62 = icmp eq i32 %46, 0
  br i1 %.not62, label %47, label %60

47:                                               ; preds = %35
  %48 = load i32, ptr %20, align 8
  %49 = and i32 %48, -17
  store i32 %49, ptr %20, align 8
  %50 = load i32, ptr %44, align 4
  %51 = and i32 %50, 64
  %.not63 = icmp eq i32 %51, 0
  br i1 %.not63, label %52, label %55

52:                                               ; preds = %47
  %53 = load i32, ptr %37, align 4
  %54 = add i32 %53, 1
  store i32 %54, ptr %37, align 4
  br label %55

55:                                               ; preds = %47, %52
  %56 = getelementptr inbounds i8, ptr %37, i64 8
  %57 = load i64, ptr %56, align 8
  %.not64 = icmp eq i64 %57, 0
  br i1 %.not64, label %58, label %60

58:                                               ; preds = %55
  %59 = tail call i64 @zend_string_hash_func(ptr noundef nonnull %37) #10
  br label %60

60:                                               ; preds = %58, %55, %35
  %61 = getelementptr inbounds i8, ptr %42, i64 24
  store ptr %37, ptr %61, align 8
  %62 = getelementptr inbounds i8, ptr %37, i64 8
  %63 = load i64, ptr %62, align 8
  %64 = getelementptr inbounds i8, ptr %42, i64 16
  store i64 %63, ptr %64, align 8
  %65 = trunc i64 %63 to i32
  %66 = load i32, ptr %21, align 4
  %67 = or i32 %66, %65
  %68 = load ptr, ptr %19, align 8
  %69 = sext i32 %67 to i64
  %70 = getelementptr inbounds i32, ptr %68, i64 %69
  %71 = load i32, ptr %70, align 4
  %72 = getelementptr inbounds i8, ptr %42, i64 12
  store i32 %71, ptr %72, align 4
  %73 = load ptr, ptr %19, align 8
  %74 = getelementptr inbounds i32, ptr %73, i64 %69
  store i32 %38, ptr %74, align 4
  %75 = load i32, ptr %22, align 4
  %76 = add i32 %75, 1
  store i32 %76, ptr %22, align 4
  tail call void @zend_hash_del_bucket(ptr noundef %0, ptr noundef nonnull %.066) #10
  br label %77

77:                                               ; preds = %27, %31, %60, %23
  %78 = getelementptr inbounds i8, ptr %.066, i64 32
  %.not61 = icmp eq ptr %78, %14
  br i1 %.not61, label %._crit_edge, label %23

._crit_edge:                                      ; preds = %77
  store ptr %8, ptr %7, align 8
  br label %79

79:                                               ; preds = %3, %._crit_edge
  ret void
}